; ModuleID = '15/1584.c'
source_filename = "15/1584.c"
target datalayout = "e-m:e-p270:32:32-p271:32:32-p272:64:64-i64:64-f80:128-n8:16:32:64-S128"
target triple = "x86_64-pc-linux-gnu"

@.str = private unnamed_addr constant [3 x i8] c"%d\00", align 1
@m = common dso_local global [1000 x [1000 x i32]] zeroinitializer, align 16
@.str.1 = private unnamed_addr constant [2 x i8] c"\0A\00", align 1

; Function Attrs: noinline nounwind uwtable
define dso_local i32 @main() #0 {
  %1 = alloca i32, align 4
  %2 = alloca i32, align 4
  %3 = alloca i32, align 4
  %4 = alloca i32, align 4
  %5 = alloca i32, align 4
  %6 = alloca i32, align 4
  %7 = alloca i32, align 4
  %8 = alloca i32, align 4
  %9 = alloca i32, align 4
  %10 = alloca i32, align 4
  store i32 0, i32* %1, align 4
  store i32 0, i32* %9, align 4
  %11 = call i32 (i8*, ...) @__isoc99_scanf(i8* getelementptr inbounds ([3 x i8], [3 x i8]* @.str, i64 0, i64 0), i32* %10)
  store i32 0, i32* %7, align 4
  br label %12

12:                                               ; preds = %34, %0
  %13 = load i32, i32* %7, align 4
  %14 = load i32, i32* %10, align 4
  %15 = icmp slt i32 %13, %14
  br i1 %15, label %16, label %37

16:                                               ; preds = %12
  store i32 0, i32* %8, align 4
  br label %17

17:                                               ; preds = %29, %16
  %18 = load i32, i32* %8, align 4
  %19 = load i32, i32* %10, align 4
  %20 = icmp slt i32 %18, %19
  br i1 %20, label %21, label %32

21:                                               ; preds = %17
  %22 = load i32, i32* %7, align 4
  %23 = sext i32 %22 to i64
  %24 = getelementptr inbounds [1000 x [1000 x i32]], [1000 x [1000 x i32]]* @m, i64 0, i64 %23
  %25 = load i32, i32* %8, align 4
  %26 = sext i32 %25 to i64
  %27 = getelementptr inbounds [1000 x i32], [1000 x i32]* %24, i64 0, i64 %26
  %28 = call i32 (i8*, ...) @__isoc99_scanf(i8* getelementptr inbounds ([3 x i8], [3 x i8]* @.str, i64 0, i64 0), i32* %27)
  br label %29

29:                                               ; preds = %21
  %30 = load i32, i32* %8, align 4
  %31 = add nsw i32 %30, 1
  store i32 %31, i32* %8, align 4
  br label %17

32:                                               ; preds = %17
  %33 = call i32 (i8*, ...) @printf(i8* getelementptr inbounds ([2 x i8], [2 x i8]* @.str.1, i64 0, i64 0))
  br label %34

34:                                               ; preds = %32
  %35 = load i32, i32* %7, align 4
  %36 = add nsw i32 %35, 1
  store i32 %36, i32* %7, align 4
  br label %12

37:                                               ; preds = %12
  store i32 0, i32* %7, align 4
  br label %38

38:                                               ; preds = %68, %37
  %39 = load i32, i32* %7, align 4
  %40 = load i32, i32* %10, align 4
  %41 = icmp slt i32 %39, %40
  br i1 %41, label %42, label %71

42:                                               ; preds = %38
  store i32 0, i32* %8, align 4
  br label %43

43:                                               ; preds = %60, %42
  %44 = load i32, i32* %8, align 4
  %45 = load i32, i32* %10, align 4
  %46 = icmp slt i32 %44, %45
  br i1 %46, label %47, label %63

47:                                               ; preds = %43
  %48 = load i32, i32* %7, align 4
  %49 = sext i32 %48 to i64
  %50 = getelementptr inbounds [1000 x [1000 x i32]], [1000 x [1000 x i32]]* @m, i64 0, i64 %49
  %51 = load i32, i32* %8, align 4
  %52 = sext i32 %51 to i64
  %53 = getelementptr inbounds [1000 x i32], [1000 x i32]* %50, i64 0, i64 %52
  %54 = load i32, i32* %53, align 4
  %55 = icmp eq i32 %54, 0
  br i1 %55, label %56, label %59

56:                                               ; preds = %47
  %57 = load i32, i32* %7, align 4
  store i32 %57, i32* %2, align 4
  %58 = load i32, i32* %8, align 4
  store i32 %58, i32* %3, align 4
  store i32 1, i32* %9, align 4
  br label %63

59:                                               ; preds = %47
  br label %60

60:                                               ; preds = %59
  %61 = load i32, i32* %8, align 4
  %62 = add nsw i32 %61, 1
  store i32 %62, i32* %8, align 4
  br label %43

63:                                               ; preds = %56, %43
  %64 = load i32, i32* %9, align 4
  %65 = icmp eq i32 %64, 1
  br i1 %65, label %66, label %67

66:                                               ; preds = %63
  br label %71

67:                                               ; preds = %63
  br label %68

68:                                               ; preds = %67
  %69 = load i32, i32* %7, align 4
  %70 = add nsw i32 %69, 1
  store i32 %70, i32* %7, align 4
  br label %38

71:                                               ; preds = %66, %38
  %72 = load i32, i32* %3, align 4
  store i32 %72, i32* %8, align 4
  br label %73

73:                                               ; preds = %90, %71
  %74 = load i32, i32* %8, align 4
  %75 = load i32, i32* %10, align 4
  %76 = icmp slt i32 %74, %75
  br i1 %76, label %77, label %93

77:                                               ; preds = %73
  %78 = load i32, i32* %2, align 4
  %79 = sext i32 %78 to i64
  %80 = getelementptr inbounds [1000 x [1000 x i32]], [1000 x [1000 x i32]]* @m, i64 0, i64 %79
  %81 = load i32, i32* %8, align 4
  %82 = sext i32 %81 to i64
  %83 = getelementptr inbounds [1000 x i32], [1000 x i32]* %80, i64 0, i64 %82
  %84 = load i32, i32* %83, align 4
  %85 = icmp ne i32 %84, 0
  br i1 %85, label %86, label %89

86:                                               ; preds = %77
  %87 = load i32, i32* %8, align 4
  %88 = sub nsw i32 %87, 1
  store i32 %88, i32* %4, align 4
  br label %93

89:                                               ; preds = %77
  br label %90

90:                                               ; preds = %89
  %91 = load i32, i32* %8, align 4
  %92 = add nsw i32 %91, 1
  store i32 %92, i32* %8, align 4
  br label %73

93:                                               ; preds = %86, %73
  %94 = load i32, i32* %2, align 4
  store i32 %94, i32* %7, align 4
  br label %95

95:                                               ; preds = %112, %93
  %96 = load i32, i32* %7, align 4
  %97 = load i32, i32* %10, align 4
  %98 = icmp slt i32 %96, %97
  br i1 %98, label %99, label %115

99:                                               ; preds = %95
  %100 = load i32, i32* %7, align 4
  %101 = sext i32 %100 to i64
  %102 = getelementptr inbounds [1000 x [1000 x i32]], [1000 x [1000 x i32]]* @m, i64 0, i64 %101
  %103 = load i32, i32* %3, align 4
  %104 = sext i32 %103 to i64
  %105 = getelementptr inbounds [1000 x i32], [1000 x i32]* %102, i64 0, i64 %104
  %106 = load i32, i32* %105, align 4
  %107 = icmp ne i32 %106, 0
  br i1 %107, label %108, label %111

108:                                              ; preds = %99
  %109 = load i32, i32* %7, align 4
  %110 = sub nsw i32 %109, 1
  store i32 %110, i32* %5, align 4
  br label %115

111:                                              ; preds = %99
  br label %112

112:                                              ; preds = %111
  %113 = load i32, i32* %7, align 4
  %114 = add nsw i32 %113, 1
  store i32 %114, i32* %7, align 4
  br label %95

115:                                              ; preds = %108, %95
  %116 = load i32, i32* %4, align 4
  %117 = load i32, i32* %3, align 4
  %118 = sub nsw i32 %116, %117
  %119 = sub nsw i32 %118, 1
  %120 = load i32, i32* %5, align 4
  %121 = load i32, i32* %2, align 4
  %122 = sub nsw i32 %120, %121
  %123 = sub nsw i32 %122, 1
  %124 = mul nsw i32 %119, %123
  store i32 %124, i32* %6, align 4
  %125 = load i32, i32* %6, align 4
  %126 = call i32 (i8*, ...) @printf(i8* getelementptr inbounds ([3 x i8], [3 x i8]* @.str, i64 0, i64 0), i32 %125)
  ret i32 0
}

declare dso_local i32 @__isoc99_scanf(i8*, ...) #1

declare dso_local i32 @printf(i8*, ...) #1


!llvm.module.flags = !{!0}
!llvm.ident = !{!1}

!0 = !{i32 1, !"wchar_size", i32 4}
!1 = !{!"clang version 10.0.0-4ubuntu1 "}
